;--------------------------------------------------------
; File Created by SDCC : free open source ANSI-C Compiler
; Version 3.6.9 #9959 (Linux)
;--------------------------------------------------------
	.module button
	.optsdcc -mmcs51 --model-small
	
;--------------------------------------------------------
; Public variables in this module
;--------------------------------------------------------
	.globl _UART_SM0
	.globl _UART_SM1
	.globl _UART_SM2
	.globl _UART_REN
	.globl _UART_TB8
	.globl _UART_RB8
	.globl _UART_TI
	.globl _UART_RI
	.globl _PCA_CF
	.globl _PCA_CR
	.globl _PCA_CCF2
	.globl _PCA_CCF1
	.globl _PCA_CCF0
	.globl _TMR_TCON_TF1
	.globl _TMR_TCON_TR1
	.globl _TMR_TCON_TF0
	.globl _TMR_TCON_TR0
	.globl _TMR_TCON_IE1
	.globl _TMR_TCON_IT1
	.globl _TMR_TCON_IE0
	.globl _TMR_TCON_IT0
	.globl _INT_IP_PPCA
	.globl _INT_IP_PLVD
	.globl _INT_IP_PADC
	.globl _INT_IP_PS
	.globl _INT_IP_PT1
	.globl _INT_IP_PX1
	.globl _INT_IP_PT0
	.globl _INT_IP_PX0
	.globl _INT_IE_EA
	.globl _INT_IE_ELVD
	.globl _INT_IE_EADC
	.globl _INT_IE_ES
	.globl _INT_IE_ET1
	.globl _INT_IE_EX1
	.globl _INT_IE_ET0
	.globl _INT_IE_EX0
	.globl _PORT_P5_7
	.globl _PORT_P5_6
	.globl _PORT_P5_5
	.globl _PORT_P5_4
	.globl _PORT_P5_3
	.globl _PORT_P5_2
	.globl _PORT_P5_1
	.globl _PORT_P5_0
	.globl _PORT_P4_7
	.globl _PORT_P4_6
	.globl _PORT_P4_5
	.globl _PORT_P4_4
	.globl _PORT_P4_3
	.globl _PORT_P4_2
	.globl _PORT_P4_1
	.globl _PORT_P4_0
	.globl _PORT_P3_7
	.globl _PORT_P3_6
	.globl _PORT_P3_5
	.globl _PORT_P3_4
	.globl _PORT_P3_3
	.globl _PORT_P3_2
	.globl _PORT_P3_1
	.globl _PORT_P3_0
	.globl _PORT_P2_7
	.globl _PORT_P2_6
	.globl _PORT_P2_5
	.globl _PORT_P2_4
	.globl _PORT_P2_3
	.globl _PORT_P2_2
	.globl _PORT_P2_1
	.globl _PORT_P2_0
	.globl _PORT_P1_7
	.globl _PORT_P1_6
	.globl _PORT_P1_5
	.globl _PORT_P1_4
	.globl _PORT_P1_3
	.globl _PORT_P1_2
	.globl _PORT_P1_1
	.globl _PORT_P1_0
	.globl _CY
	.globl _AC
	.globl _F0
	.globl _RS1
	.globl _RS0
	.globl _OV
	.globl _F1
	.globl _P
	.globl _IAP_CONTR
	.globl _IAP_TRIG
	.globl _IAP_CMD
	.globl _IAP_ADDR
	.globl _IAP_ADDRL
	.globl _IAP_ADDRH
	.globl _IAP_DATA
	.globl _UART_SADEN
	.globl _UART_SADDR
	.globl _UART_SBUF
	.globl _UART_SCON
	.globl _PCA_CMOD
	.globl _PCA_CCON
	.globl _PCA_PWM2
	.globl _PCA_PWM1
	.globl _PCA_PWM0
	.globl _PCA_C
	.globl _PCA_CCAP2_L
	.globl _PCA_CCAP2_H
	.globl _PCA_CCAP1_L
	.globl _PCA_CCAP1_H
	.globl _PCA_CCAP0_L
	.globl _PCA_CCAP0_H
	.globl _PCA_CCAP2
	.globl _PCA_CCAP1
	.globl _PCA_CCAP0
	.globl _PCA_CCAPM2
	.globl _PCA_CCAPM1
	.globl _PCA_CCAPM0
	.globl _CMP_CR2
	.globl _CMP_CR1
	.globl _ADC_RESL
	.globl _ADC_RESH
	.globl _ADC_RES
	.globl _ADC_CONTR
	.globl _ADC_P1ASF
	.globl _EEPROM_CONTR
	.globl _EEPROM_TRIG
	.globl _EEPROM_CMD
	.globl _EEPROM_ADDR
	.globl _EEPROM_DATA
	.globl _TMR_T2
	.globl _TMR_T0
	.globl _TMR_TMOD
	.globl _TMR_TCON
	.globl _INT_IP2
	.globl _INT_IP
	.globl _INT_IE2
	.globl _INT_IE
	.globl _PORT_P5M0
	.globl _PORT_P5M1
	.globl _PORT_P4M0
	.globl _PORT_P4M1
	.globl _PORT_P3M0
	.globl _PORT_P3M1
	.globl _PORT_P2M0
	.globl _PORT_P2M1
	.globl _PORT_P1M0
	.globl _PORT_P1M1
	.globl _PORT_P5
	.globl _PORT_P4
	.globl _PORT_P3
	.globl _PORT_P2
	.globl _PORT_P1
	.globl _PSW
	.globl _PCON2
	.globl _AUXR2
	.globl _AUXR1
	.globl _AUXR
	.globl _PCON
	.globl _DPTR
	.globl _SP
	.globl _BUTTON_DATA_SELECT_HELD_DOWN
	.globl _BUTTON_DATA_SELECT_RELEASED_LONGP
	.globl _BUTTON_DATA_SELECT_RELEASED_NORMAL
	.globl _BUTTON_DATA_SELECT_PRESSED
	.globl _BUTTON_DATA_MENU_HELD_DOWN
	.globl _BUTTON_DATA_MENU_RELEASED_LONGP
	.globl _BUTTON_DATA_MENU_RELEASED_NORMAL
	.globl _BUTTON_DATA_MENU_PRESSED
	.globl _BUTTON_DATA
	.globl _BUTTON_SELECT_CNT
	.globl _BUTTON_MENU_CNT
	.globl _BUTTON_SELECT_STATE
	.globl _BUTTON_MENU_STATE
	.globl _button_read_and_clear_select
	.globl _button_read_and_clear_menu
;--------------------------------------------------------
; special function registers
;--------------------------------------------------------
	.area RSEG    (ABS,DATA)
	.org 0x0000
_SP	=	0x0081
_DPTR	=	0x8382
_PCON	=	0x0087
_AUXR	=	0x008e
_AUXR1	=	0x00a2
_AUXR2	=	0x008f
_PCON2	=	0x0097
_PSW	=	0x00d0
_PORT_P1	=	0x0090
_PORT_P2	=	0x00a0
_PORT_P3	=	0x00b0
_PORT_P4	=	0x00c0
_PORT_P5	=	0x00c8
_PORT_P1M1	=	0x0091
_PORT_P1M0	=	0x0092
_PORT_P2M1	=	0x0095
_PORT_P2M0	=	0x0096
_PORT_P3M1	=	0x00b1
_PORT_P3M0	=	0x00b2
_PORT_P4M1	=	0x00b3
_PORT_P4M0	=	0x00b4
_PORT_P5M1	=	0x00c9
_PORT_P5M0	=	0x00ca
_INT_IE	=	0x00a8
_INT_IE2	=	0x00af
_INT_IP	=	0x00b8
_INT_IP2	=	0x00b5
_TMR_TCON	=	0x0088
_TMR_TMOD	=	0x0089
_TMR_T0	=	0x8c8a
_TMR_T2	=	0xd6d7
_EEPROM_DATA	=	0x00c2
_EEPROM_ADDR	=	0xc3c4
_EEPROM_CMD	=	0x00c5
_EEPROM_TRIG	=	0x00c6
_EEPROM_CONTR	=	0x00c7
_ADC_P1ASF	=	0x009d
_ADC_CONTR	=	0x00bc
_ADC_RES	=	0xbdbe
_ADC_RESH	=	0x00bd
_ADC_RESL	=	0x00be
_CMP_CR1	=	0x00e6
_CMP_CR2	=	0x00e7
_PCA_CCAPM0	=	0x00da
_PCA_CCAPM1	=	0x00db
_PCA_CCAPM2	=	0x00dc
_PCA_CCAP0	=	0xfaea
_PCA_CCAP1	=	0xfbeb
_PCA_CCAP2	=	0xfcec
_PCA_CCAP0_H	=	0x00fa
_PCA_CCAP0_L	=	0x00ea
_PCA_CCAP1_H	=	0x00fb
_PCA_CCAP1_L	=	0x00eb
_PCA_CCAP2_H	=	0x00fc
_PCA_CCAP2_L	=	0x00ec
_PCA_C	=	0xf9e9
_PCA_PWM0	=	0x00f2
_PCA_PWM1	=	0x00f3
_PCA_PWM2	=	0x00f4
_PCA_CCON	=	0x00d8
_PCA_CMOD	=	0x00d9
_UART_SCON	=	0x0098
_UART_SBUF	=	0x0099
_UART_SADDR	=	0x00a9
_UART_SADEN	=	0x00b9
_IAP_DATA	=	0x00c2
_IAP_ADDRH	=	0x00c3
_IAP_ADDRL	=	0x00c4
_IAP_ADDR	=	0xc3c4
_IAP_CMD	=	0x00c5
_IAP_TRIG	=	0x00c6
_IAP_CONTR	=	0x00c7
;--------------------------------------------------------
; special function bits
;--------------------------------------------------------
	.area RSEG    (ABS,DATA)
	.org 0x0000
_P	=	0x00d0
_F1	=	0x00d1
_OV	=	0x00d2
_RS0	=	0x00d3
_RS1	=	0x00d4
_F0	=	0x00d5
_AC	=	0x00d6
_CY	=	0x00d7
_PORT_P1_0	=	0x0090
_PORT_P1_1	=	0x0091
_PORT_P1_2	=	0x0092
_PORT_P1_3	=	0x0093
_PORT_P1_4	=	0x0094
_PORT_P1_5	=	0x0095
_PORT_P1_6	=	0x0096
_PORT_P1_7	=	0x0097
_PORT_P2_0	=	0x00a0
_PORT_P2_1	=	0x00a1
_PORT_P2_2	=	0x00a2
_PORT_P2_3	=	0x00a3
_PORT_P2_4	=	0x00a4
_PORT_P2_5	=	0x00a5
_PORT_P2_6	=	0x00a6
_PORT_P2_7	=	0x00a7
_PORT_P3_0	=	0x00b0
_PORT_P3_1	=	0x00b1
_PORT_P3_2	=	0x00b2
_PORT_P3_3	=	0x00b3
_PORT_P3_4	=	0x00b4
_PORT_P3_5	=	0x00b5
_PORT_P3_6	=	0x00b6
_PORT_P3_7	=	0x00b7
_PORT_P4_0	=	0x00c0
_PORT_P4_1	=	0x00c1
_PORT_P4_2	=	0x00c2
_PORT_P4_3	=	0x00c3
_PORT_P4_4	=	0x00c4
_PORT_P4_5	=	0x00c5
_PORT_P4_6	=	0x00c6
_PORT_P4_7	=	0x00c7
_PORT_P5_0	=	0x00c8
_PORT_P5_1	=	0x00c9
_PORT_P5_2	=	0x00ca
_PORT_P5_3	=	0x00cb
_PORT_P5_4	=	0x00cc
_PORT_P5_5	=	0x00cd
_PORT_P5_6	=	0x00ce
_PORT_P5_7	=	0x00cd
_INT_IE_EX0	=	0x00a8
_INT_IE_ET0	=	0x00a9
_INT_IE_EX1	=	0x00aa
_INT_IE_ET1	=	0x00ab
_INT_IE_ES	=	0x00ac
_INT_IE_EADC	=	0x00ad
_INT_IE_ELVD	=	0x00ae
_INT_IE_EA	=	0x00af
_INT_IP_PX0	=	0x00b8
_INT_IP_PT0	=	0x00b9
_INT_IP_PX1	=	0x00ba
_INT_IP_PT1	=	0x00bb
_INT_IP_PS	=	0x00bc
_INT_IP_PADC	=	0x00bd
_INT_IP_PLVD	=	0x00be
_INT_IP_PPCA	=	0x00bf
_TMR_TCON_IT0	=	0x0088
_TMR_TCON_IE0	=	0x0089
_TMR_TCON_IT1	=	0x008a
_TMR_TCON_IE1	=	0x008b
_TMR_TCON_TR0	=	0x008c
_TMR_TCON_TF0	=	0x008d
_TMR_TCON_TR1	=	0x008e
_TMR_TCON_TF1	=	0x008f
_PCA_CCF0	=	0x00d8
_PCA_CCF1	=	0x00d9
_PCA_CCF2	=	0x00da
_PCA_CR	=	0x00de
_PCA_CF	=	0x00df
_UART_RI	=	0x0098
_UART_TI	=	0x0099
_UART_RB8	=	0x009a
_UART_TB8	=	0x009b
_UART_REN	=	0x009c
_UART_SM2	=	0x009d
_UART_SM1	=	0x009e
_UART_SM0	=	0x009e
;--------------------------------------------------------
; overlayable register banks
;--------------------------------------------------------
	.area REG_BANK_0	(REL,OVR,DATA)
	.ds 8
;--------------------------------------------------------
; internal ram data
;--------------------------------------------------------
	.area DSEG    (DATA)
_BUTTON_MENU_STATE::
	.ds 1
_BUTTON_SELECT_STATE::
	.ds 1
_BUTTON_MENU_CNT::
	.ds 1
_BUTTON_SELECT_CNT::
	.ds 1
_BUTTON_DATA	=	0x0022
;--------------------------------------------------------
; overlayable items in internal ram 
;--------------------------------------------------------
	.area	OSEG    (OVR,DATA)
	.area	OSEG    (OVR,DATA)
;--------------------------------------------------------
; indirectly addressable internal ram data
;--------------------------------------------------------
	.area ISEG    (DATA)
;--------------------------------------------------------
; absolute internal ram data
;--------------------------------------------------------
	.area IABS    (ABS,DATA)
	.area IABS    (ABS,DATA)
;--------------------------------------------------------
; bit data
;--------------------------------------------------------
	.area BSEG    (BIT)
_BUTTON_DATA_MENU_PRESSED	=	0x0010
_BUTTON_DATA_MENU_RELEASED_NORMAL	=	0x0011
_BUTTON_DATA_MENU_RELEASED_LONGP	=	0x0012
_BUTTON_DATA_MENU_HELD_DOWN	=	0x0013
_BUTTON_DATA_SELECT_PRESSED	=	0x0014
_BUTTON_DATA_SELECT_RELEASED_NORMAL	=	0x0015
_BUTTON_DATA_SELECT_RELEASED_LONGP	=	0x0016
_BUTTON_DATA_SELECT_HELD_DOWN	=	0x0017
;--------------------------------------------------------
; paged external ram data
;--------------------------------------------------------
	.area PSEG    (PAG,XDATA)
;--------------------------------------------------------
; external ram data
;--------------------------------------------------------
	.area XSEG    (XDATA)
;--------------------------------------------------------
; absolute external ram data
;--------------------------------------------------------
	.area XABS    (ABS,XDATA)
;--------------------------------------------------------
; external initialized ram data
;--------------------------------------------------------
	.area XISEG   (XDATA)
	.area HOME    (CODE)
	.area GSINIT0 (CODE)
	.area GSINIT1 (CODE)
	.area GSINIT2 (CODE)
	.area GSINIT3 (CODE)
	.area GSINIT4 (CODE)
	.area GSINIT5 (CODE)
	.area GSINIT  (CODE)
	.area GSFINAL (CODE)
	.area CSEG    (CODE)
;--------------------------------------------------------
; global & static initialisations
;--------------------------------------------------------
	.area HOME    (CODE)
	.area GSINIT  (CODE)
	.area GSFINAL (CODE)
	.area GSINIT  (CODE)
;--------------------------------------------------------
; Home
;--------------------------------------------------------
	.area HOME    (CODE)
	.area HOME    (CODE)
;--------------------------------------------------------
; code
;--------------------------------------------------------
	.area CSEG    (CODE)
;------------------------------------------------------------
;Allocation info for local variables in function 'button_read_and_clear_select'
;------------------------------------------------------------
;s                         Allocated to registers r7 
;------------------------------------------------------------
;	../button.c:11: enum button_states button_read_and_clear_select() {
;	-----------------------------------------
;	 function button_read_and_clear_select
;	-----------------------------------------
_button_read_and_clear_select:
	ar7 = 0x07
	ar6 = 0x06
	ar5 = 0x05
	ar4 = 0x04
	ar3 = 0x03
	ar2 = 0x02
	ar1 = 0x01
	ar0 = 0x00
;	../button.c:13: INT_IE_ET0 = 0; //Disable timer 0 interrupt so we don't get half bit sets
;	assignBit
	clr	_INT_IE_ET0
;	../button.c:14: if(!(BUTTON_DATA >> 0x05)){
	mov	a,_BUTTON_DATA
	swap	a
	rr	a
	anl	a,#0x07
	mov	r7,a
	jnz	00102$
;	../button.c:15: INT_IE_ET0 = 1;
;	assignBit
	setb	_INT_IE_ET0
;	../button.c:16: return BUTTON_NONE;
	mov	dpl,#0x03
	ret
00102$:
;	../button.c:18: if(BUTTON_DATA_SELECT_HELD_DOWN){
	jnb	_BUTTON_DATA_SELECT_HELD_DOWN,00104$
;	../button.c:19: INT_IE_ET0 = 1;
;	assignBit
	setb	_INT_IE_ET0
;	../button.c:20: return BUTTON_HELD_DOWN;
	mov	dpl,#0x02
	ret
00104$:
;	../button.c:22: if(BUTTON_DATA_SELECT_RELEASED_NORMAL){
;	../button.c:23: BUTTON_DATA_SELECT_RELEASED_NORMAL = 0;
;	assignBit
	jbc	_BUTTON_DATA_SELECT_RELEASED_NORMAL,00121$
	sjmp	00106$
00121$:
;	../button.c:24: s = BUTTON_PRESSED;
	mov	r7,#0x00
	sjmp	00107$
00106$:
;	../button.c:26: BUTTON_DATA_SELECT_RELEASED_LONGP = 0;
;	assignBit
	clr	_BUTTON_DATA_SELECT_RELEASED_LONGP
;	../button.c:27: s = BUTTON_LONG_PRESSED;
	mov	r7,#0x01
00107$:
;	../button.c:29: INT_IE_ET0 = 1; //Enable timer 0 interrupt
;	assignBit
	setb	_INT_IE_ET0
;	../button.c:30: return s;
	mov	dpl,r7
	ret
;------------------------------------------------------------
;Allocation info for local variables in function 'button_read_and_clear_menu'
;------------------------------------------------------------
;s                         Allocated to registers r7 
;------------------------------------------------------------
;	../button.c:33: enum button_states button_read_and_clear_menu() {
;	-----------------------------------------
;	 function button_read_and_clear_menu
;	-----------------------------------------
_button_read_and_clear_menu:
;	../button.c:35: INT_IE_ET0 = 0; //Disable timer 0 interrupt so we don't get half bit sets
;	assignBit
	clr	_INT_IE_ET0
;	../button.c:36: if(!(BUTTON_DATA & 0x0e)){
	mov	a,_BUTTON_DATA
	anl	a,#0x0e
	jz	00120$
	sjmp	00102$
00120$:
;	../button.c:37: INT_IE_ET0 = 1;
;	assignBit
	setb	_INT_IE_ET0
;	../button.c:38: return BUTTON_NONE;
	mov	dpl,#0x03
	ret
00102$:
;	../button.c:40: if(BUTTON_DATA_MENU_HELD_DOWN){
	jnb	_BUTTON_DATA_MENU_HELD_DOWN,00104$
;	../button.c:41: INT_IE_ET0 = 1;
;	assignBit
	setb	_INT_IE_ET0
;	../button.c:42: return BUTTON_HELD_DOWN;
	mov	dpl,#0x02
	ret
00104$:
;	../button.c:44: if(BUTTON_DATA_MENU_RELEASED_NORMAL){
;	../button.c:45: BUTTON_DATA_MENU_RELEASED_NORMAL = 0;
;	assignBit
	jbc	_BUTTON_DATA_MENU_RELEASED_NORMAL,00122$
	sjmp	00106$
00122$:
;	../button.c:46: s = BUTTON_PRESSED;
	mov	r7,#0x00
	sjmp	00107$
00106$:
;	../button.c:48: BUTTON_DATA_MENU_RELEASED_LONGP = 0;
;	assignBit
	clr	_BUTTON_DATA_MENU_RELEASED_LONGP
;	../button.c:49: s = BUTTON_LONG_PRESSED;
	mov	r7,#0x01
00107$:
;	../button.c:51: INT_IE_ET0 = 1; //Enable timer 0 interrupt
;	assignBit
	setb	_INT_IE_ET0
;	../button.c:52: return s;
	mov	dpl,r7
	ret
	.area CSEG    (CODE)
	.area CONST   (CODE)
	.area XINIT   (CODE)
	.area CABS    (ABS,CODE)
